(lp0
S'poi'
p1
aS'total_stock_value'
p2
aS'exercised_stock_options'
p3
aS'bonus'
p4
aS'salary'
p5
aS'ratio_from'
p6
aS'deferred_income'
p7
aS'long_term_incentive'
p8
aS'total_payments'
p9
aS'ratio_shared'
p10
a.